
/tmp/c2mpt_ll.c/c2mpt_ll.c.ppc64:     file format elf64-powerpc


Disassembly of section microprobe.text:

0000000001000000 <.c2mpt_function>:
 1000000:	3d 02 f9 07 	addis   r8,r2,-1785
 1000004:	e9 28 45 08 	ld      r9,17672(r8)
 1000008:	2f a9 00 00 	cmpdi   cr7,r9,0
 100000c:	41 9e 00 38 	beq     cr7,1000044 <.c2mpt_function+0x44>
 1000010:	3d 02 f9 07 	addis   r8,r2,-1785
 1000014:	e9 48 45 50 	ld      r10,17744(r8)
 1000018:	60 00 00 00 	nop
 100001c:	60 00 00 00 	nop
 1000020:	e9 09 00 00 	ld      r8,0(r9)
 1000024:	e9 29 00 08 	ld      r9,8(r9)
 1000028:	2f a9 00 00 	cmpdi   cr7,r9,0
 100002c:	7d 4a 42 14 	add     r10,r10,r8
 1000030:	40 9e ff f0 	bne     cr7,1000020 <.c2mpt_function+0x20>
 1000034:	79 4a 0f a4 	rldicr  r10,r10,1,62
 1000038:	3d 22 f9 07 	addis   r9,r2,-1785
 100003c:	f9 49 45 50 	std     r10,17744(r9)
 1000040:	4e 80 00 20 	blr
 1000044:	3d 22 f9 07 	addis   r9,r2,-1785
 1000048:	e9 49 45 50 	ld      r10,17744(r9)
 100004c:	4b ff ff e8 	b       1000034 <.c2mpt_function+0x34>
 1000050:	00 00 00 00 	.long 0x0
 1000054:	00 00 00 00 	.long 0x0
 1000058:	00 00 00 00 	.long 0x0
 100005c:	60 00 00 00 	nop

0000000001000060 <.my_subroutine>:
 1000060:	78 63 0f a4 	rldicr  r3,r3,1,62
 1000064:	3d 22 f9 07 	addis   r9,r2,-1785
 1000068:	f8 69 45 50 	std     r3,17744(r9)
 100006c:	4e 80 00 20 	blr
 1000070:	00 00 00 00 	.long 0x0
 1000074:	00 00 00 00 	.long 0x0
 1000078:	00 00 00 00 	.long 0x0

Disassembly of section microprobe.data:

0000000009090000 <linkedlist>:
 9090000:	00 00 00 00 	.long 0x0
 9090004:	00 00 00 00 	.long 0x0
 9090008:	00 00 00 00 	.long 0x0
 909000c:	00 00 00 00 	.long 0x0
 9090010:	00 00 00 00 	.long 0x0
 9090014:	00 00 00 00 	.long 0x0
 9090018:	00 00 00 00 	.long 0x0
 909001c:	00 00 00 00 	.long 0x0
 9090020:	00 00 00 00 	.long 0x0
 9090024:	00 00 00 00 	.long 0x0
 9090028:	00 00 00 00 	.long 0x0
 909002c:	00 00 00 00 	.long 0x0
 9090030:	00 00 00 00 	.long 0x0
 9090034:	00 00 00 00 	.long 0x0
 9090038:	00 00 00 00 	.long 0x0
 909003c:	00 00 00 00 	.long 0x0
 9090040:	00 00 00 00 	.long 0x0
 9090044:	00 00 00 00 	.long 0x0
 9090048:	00 00 00 00 	.long 0x0
 909004c:	00 00 00 00 	.long 0x0

0000000009090050 <count>:
 9090050:	00 00 00 00 	.long 0x0
 9090054:	ca fe ca fe 	lfd     f23,-13570(r30)
