
/tmp/c2mpt_ll.c/c2mpt_ll.c.s390:     file format elf64-s390


Disassembly of section microprobe.text:

0000000001000000 <c2mpt_function>:
 1000000:	c0 10 04 04 80 08 	larl	%r1,9090010 <linkedlist>
 1000006:	c0 30 04 04 7f fd 	larl	%r3,9090000 <count>
 100000c:	e3 10 10 08 00 04 	lg	%r1,8(%r1)
 1000012:	b9 02 00 11       	ltgr	%r1,%r1
 1000016:	e3 20 30 00 00 04 	lg	%r2,0(%r3)
 100001c:	a7 84 00 0c       	je	1000034 <c2mpt_function+0x34>
 1000020:	e3 20 10 00 00 08 	ag	%r2,0(%r1)
 1000026:	e3 10 10 08 00 04 	lg	%r1,8(%r1)
 100002c:	b9 02 00 11       	ltgr	%r1,%r1
 1000030:	a7 74 ff f8       	jne	1000020 <c2mpt_function+0x20>
 1000034:	b9 04 00 12       	lgr	%r1,%r2
 1000038:	b9 08 00 12       	agr	%r1,%r2
 100003c:	e3 10 30 00 00 24 	stg	%r1,0(%r3)
 1000042:	07 fe             	br	%r14
 1000044:	07 07             	nopr	%r7
 1000046:	07 07             	nopr	%r7

0000000001000048 <my_subroutine>:
 1000048:	c0 10 04 04 7f dc 	larl	%r1,9090000 <count>
 100004e:	b9 04 00 32       	lgr	%r3,%r2
 1000052:	b9 08 00 32       	agr	%r3,%r2
 1000056:	e3 30 10 00 00 24 	stg	%r3,0(%r1)
 100005c:	07 fe             	br	%r14
 100005e:	07 07             	nopr	%r7

Disassembly of section microprobe.data:

0000000009090000 <count>:
 9090000:	00 00 00 00       	.long	0x00000000
 9090004:	ca fe ca fe       	.long	0xcafecafe
 9090008:	00 00 00 00       	.long	0x00000000
 909000c:	00 00 00 00       	.long	0x00000000

0000000009090010 <linkedlist>:
 9090010:	00 00 00 00       	.long	0x00000000
 9090014:	00 00 00 00       	.long	0x00000000
 9090018:	00 00 00 00       	.long	0x00000000
 909001c:	00 00 00 00       	.long	0x00000000
 9090020:	00 00 00 00       	.long	0x00000000
 9090024:	00 00 00 00       	.long	0x00000000
 9090028:	00 00 00 00       	.long	0x00000000
 909002c:	00 00 00 00       	.long	0x00000000
 9090030:	00 00 00 00       	.long	0x00000000
 9090034:	00 00 00 00       	.long	0x00000000
 9090038:	00 00 00 00       	.long	0x00000000
 909003c:	00 00 00 00       	.long	0x00000000
 9090040:	00 00 00 00       	.long	0x00000000
 9090044:	00 00 00 00       	.long	0x00000000
 9090048:	00 00 00 00       	.long	0x00000000
 909004c:	00 00 00 00       	.long	0x00000000
 9090050:	00 00 00 00       	.long	0x00000000
 9090054:	00 00 00 00       	.long	0x00000000
 9090058:	00 00 00 00       	.long	0x00000000
 909005c:	00 00 00 00       	.long	0x00000000
