
/tmp/c2mpt_mm.c/c2mpt_mm.c.ppc64:     file format elf64-powerpc


Disassembly of section microprobe.text:

0000000001000000 <.my_subroutine>:
 1000000:	7c 63 21 d2 	mulld   r3,r3,r4
 1000004:	7c 63 2a 14 	add     r3,r3,r5
 1000008:	4e 80 00 20 	blr
 100000c:	00 00 00 00 	.long 0x0
 1000010:	00 00 00 00 	.long 0x0
 1000014:	00 00 00 00 	.long 0x0
 1000018:	60 00 00 00 	nop
 100001c:	60 00 00 00 	nop

0000000001000020 <.c2mpt_function>:
 1000020:	7c 08 02 a6 	mflr    r0
 1000024:	fa 01 ff 80 	std     r16,-128(r1)
 1000028:	fa 21 ff 88 	std     r17,-120(r1)
 100002c:	fa 41 ff 90 	std     r18,-112(r1)
 1000030:	fb a1 ff e8 	std     r29,-24(r1)
 1000034:	f9 e1 ff 78 	std     r15,-136(r1)
 1000038:	fa 61 ff 98 	std     r19,-104(r1)
 100003c:	fa 81 ff a0 	std     r20,-96(r1)
 1000040:	fa a1 ff a8 	std     r21,-88(r1)
 1000044:	fa c1 ff b0 	std     r22,-80(r1)
 1000048:	f8 01 00 10 	std     r0,16(r1)
 100004c:	fa e1 ff b8 	std     r23,-72(r1)
 1000050:	fb 01 ff c0 	std     r24,-64(r1)
 1000054:	fb 21 ff c8 	std     r25,-56(r1)
 1000058:	fb 41 ff d0 	std     r26,-48(r1)
 100005c:	fb 61 ff d8 	std     r27,-40(r1)
 1000060:	fb 81 ff e0 	std     r28,-32(r1)
 1000064:	fb c1 ff f0 	std     r30,-16(r1)
 1000068:	fb e1 ff f8 	std     r31,-8(r1)
 100006c:	3f a2 f9 07 	addis   r29,r2,-1785
 1000070:	f8 21 ff 01 	stdu    r1,-256(r1)
 1000074:	3b bd 3c 00 	addi    r29,r29,15360
 1000078:	3a 5d 03 18 	addi    r18,r29,792
 100007c:	3a 1d 03 20 	addi    r16,r29,800
 1000080:	3a 3d 06 40 	addi    r17,r29,1600
 1000084:	60 00 00 00 	nop
 1000088:	60 00 00 00 	nop
 100008c:	60 00 00 00 	nop
 1000090:	ea 7d 00 00 	ld      r19,0(r29)
 1000094:	ea 9d 00 08 	ld      r20,8(r29)
 1000098:	7e 3f 8b 78 	mr      r31,r17
 100009c:	7e 4f 93 78 	mr      r15,r18
 10000a0:	ea bd 00 10 	ld      r21,16(r29)
 10000a4:	ea dd 00 18 	ld      r22,24(r29)
 10000a8:	3b c0 00 0a 	li      r30,10
 10000ac:	ea fd 00 20 	ld      r23,32(r29)
 10000b0:	eb 1d 00 28 	ld      r24,40(r29)
 10000b4:	eb 3d 00 30 	ld      r25,48(r29)
 10000b8:	eb 5d 00 38 	ld      r26,56(r29)
 10000bc:	eb 7d 00 40 	ld      r27,64(r29)
 10000c0:	eb 9d 00 48 	ld      r28,72(r29)
 10000c4:	60 00 00 00 	nop
 10000c8:	60 00 00 00 	nop
 10000cc:	60 00 00 00 	nop
 10000d0:	e8 9f 00 00 	ld      r4,0(r31)
 10000d4:	38 a0 00 00 	li      r5,0
 10000d8:	7e 63 9b 78 	mr      r3,r19
 10000dc:	3b ff 00 08 	addi    r31,r31,8
 10000e0:	4b ff ff 21 	bl      1000000 <.my_subroutine>
 10000e4:	e8 9f 00 48 	ld      r4,72(r31)
 10000e8:	7c 65 1b 78 	mr      r5,r3
 10000ec:	7e 83 a3 78 	mr      r3,r20
 10000f0:	4b ff ff 11 	bl      1000000 <.my_subroutine>
 10000f4:	e8 9f 00 98 	ld      r4,152(r31)
 10000f8:	7c 65 1b 78 	mr      r5,r3
 10000fc:	7e a3 ab 78 	mr      r3,r21
 1000100:	4b ff ff 01 	bl      1000000 <.my_subroutine>
 1000104:	e8 9f 00 e8 	ld      r4,232(r31)
 1000108:	7c 65 1b 78 	mr      r5,r3
 100010c:	7e c3 b3 78 	mr      r3,r22
 1000110:	4b ff fe f1 	bl      1000000 <.my_subroutine>
 1000114:	e8 9f 01 38 	ld      r4,312(r31)
 1000118:	7c 65 1b 78 	mr      r5,r3
 100011c:	7e e3 bb 78 	mr      r3,r23
 1000120:	4b ff fe e1 	bl      1000000 <.my_subroutine>
 1000124:	e8 9f 01 88 	ld      r4,392(r31)
 1000128:	7c 65 1b 78 	mr      r5,r3
 100012c:	7f 03 c3 78 	mr      r3,r24
 1000130:	4b ff fe d1 	bl      1000000 <.my_subroutine>
 1000134:	e8 9f 01 d8 	ld      r4,472(r31)
 1000138:	7c 65 1b 78 	mr      r5,r3
 100013c:	7f 23 cb 78 	mr      r3,r25
 1000140:	4b ff fe c1 	bl      1000000 <.my_subroutine>
 1000144:	e8 9f 02 28 	ld      r4,552(r31)
 1000148:	7c 65 1b 78 	mr      r5,r3
 100014c:	7f 43 d3 78 	mr      r3,r26
 1000150:	4b ff fe b1 	bl      1000000 <.my_subroutine>
 1000154:	e8 9f 02 78 	ld      r4,632(r31)
 1000158:	7c 65 1b 78 	mr      r5,r3
 100015c:	7f 63 db 78 	mr      r3,r27
 1000160:	4b ff fe a1 	bl      1000000 <.my_subroutine>
 1000164:	e8 9f 02 c8 	ld      r4,712(r31)
 1000168:	7c 65 1b 78 	mr      r5,r3
 100016c:	7f 83 e3 78 	mr      r3,r28
 1000170:	4b ff fe 91 	bl      1000000 <.my_subroutine>
 1000174:	39 3e ff ff 	addi    r9,r30,-1
 1000178:	79 3e 00 21 	clrldi. r30,r9,32
 100017c:	f8 6f 00 09 	stdu    r3,8(r15)
 1000180:	40 82 ff 50 	bne     10000d0 <.c2mpt_function+0xb0>
 1000184:	3b bd 00 50 	addi    r29,r29,80
 1000188:	3a 52 00 50 	addi    r18,r18,80
 100018c:	7f bd 80 40 	cmpld   cr7,r29,r16
 1000190:	40 9e ff 00 	bne     cr7,1000090 <.c2mpt_function+0x70>
 1000194:	38 21 01 00 	addi    r1,r1,256
 1000198:	e8 01 00 10 	ld      r0,16(r1)
 100019c:	e9 e1 ff 78 	ld      r15,-136(r1)
 10001a0:	ea 01 ff 80 	ld      r16,-128(r1)
 10001a4:	ea 21 ff 88 	ld      r17,-120(r1)
 10001a8:	7c 08 03 a6 	mtlr    r0
 10001ac:	ea 41 ff 90 	ld      r18,-112(r1)
 10001b0:	ea 61 ff 98 	ld      r19,-104(r1)
 10001b4:	ea 81 ff a0 	ld      r20,-96(r1)
 10001b8:	ea a1 ff a8 	ld      r21,-88(r1)
 10001bc:	ea c1 ff b0 	ld      r22,-80(r1)
 10001c0:	ea e1 ff b8 	ld      r23,-72(r1)
 10001c4:	eb 01 ff c0 	ld      r24,-64(r1)
 10001c8:	eb 21 ff c8 	ld      r25,-56(r1)
 10001cc:	eb 41 ff d0 	ld      r26,-48(r1)
 10001d0:	eb 61 ff d8 	ld      r27,-40(r1)
 10001d4:	eb 81 ff e0 	ld      r28,-32(r1)
 10001d8:	eb a1 ff e8 	ld      r29,-24(r1)
 10001dc:	eb c1 ff f0 	ld      r30,-16(r1)
 10001e0:	eb e1 ff f8 	ld      r31,-8(r1)
 10001e4:	4e 80 00 20 	blr
 10001e8:	00 00 00 00 	.long 0x0
 10001ec:	00 00 00 01 	.long 0x1
 10001f0:	80 11 00 00 	lwz     r0,0(r17)

Disassembly of section microprobe.data:

0000000009090000 <matA>:
 9090000:	00 00 00 00 	.long 0x0
 9090004:	00 00 00 00 	.long 0x0
 9090008:	00 00 00 00 	.long 0x0
 909000c:	00 00 00 00 	.long 0x0
 9090010:	00 00 00 00 	.long 0x0
 9090014:	00 00 00 00 	.long 0x0
 9090018:	00 00 00 00 	.long 0x0
 909001c:	00 00 00 00 	.long 0x0
 9090020:	00 00 00 00 	.long 0x0
 9090024:	00 00 00 00 	.long 0x0
 9090028:	00 00 00 00 	.long 0x0
 909002c:	00 00 00 00 	.long 0x0
 9090030:	00 00 00 00 	.long 0x0
 9090034:	00 00 00 00 	.long 0x0
 9090038:	00 00 00 00 	.long 0x0
 909003c:	00 00 00 00 	.long 0x0
 9090040:	00 00 00 00 	.long 0x0
 9090044:	00 00 00 00 	.long 0x0
 9090048:	00 00 00 00 	.long 0x0
 909004c:	00 00 00 00 	.long 0x0
 9090050:	00 00 00 00 	.long 0x0
 9090054:	00 00 00 00 	.long 0x0
 9090058:	00 00 00 00 	.long 0x0
 909005c:	00 00 00 00 	.long 0x0
 9090060:	00 00 00 00 	.long 0x0
 9090064:	00 00 00 00 	.long 0x0
 9090068:	00 00 00 00 	.long 0x0
 909006c:	00 00 00 00 	.long 0x0
 9090070:	00 00 00 00 	.long 0x0
 9090074:	00 00 00 00 	.long 0x0
 9090078:	00 00 00 00 	.long 0x0
 909007c:	00 00 00 00 	.long 0x0
 9090080:	00 00 00 00 	.long 0x0
 9090084:	00 00 00 00 	.long 0x0
 9090088:	00 00 00 00 	.long 0x0
 909008c:	00 00 00 00 	.long 0x0
 9090090:	00 00 00 00 	.long 0x0
 9090094:	00 00 00 00 	.long 0x0
 9090098:	00 00 00 00 	.long 0x0
 909009c:	00 00 00 00 	.long 0x0
 90900a0:	00 00 00 00 	.long 0x0
 90900a4:	00 00 00 00 	.long 0x0
 90900a8:	00 00 00 00 	.long 0x0
 90900ac:	00 00 00 00 	.long 0x0
 90900b0:	00 00 00 00 	.long 0x0
 90900b4:	00 00 00 00 	.long 0x0
 90900b8:	00 00 00 00 	.long 0x0
 90900bc:	00 00 00 00 	.long 0x0
 90900c0:	00 00 00 00 	.long 0x0
 90900c4:	00 00 00 00 	.long 0x0
 90900c8:	00 00 00 00 	.long 0x0
 90900cc:	00 00 00 00 	.long 0x0
 90900d0:	00 00 00 00 	.long 0x0
 90900d4:	00 00 00 00 	.long 0x0
 90900d8:	00 00 00 00 	.long 0x0
 90900dc:	00 00 00 00 	.long 0x0
 90900e0:	00 00 00 00 	.long 0x0
 90900e4:	00 00 00 00 	.long 0x0
 90900e8:	00 00 00 00 	.long 0x0
 90900ec:	00 00 00 00 	.long 0x0
 90900f0:	00 00 00 00 	.long 0x0
 90900f4:	00 00 00 00 	.long 0x0
 90900f8:	00 00 00 00 	.long 0x0
 90900fc:	00 00 00 00 	.long 0x0
 9090100:	00 00 00 00 	.long 0x0
 9090104:	00 00 00 00 	.long 0x0
 9090108:	00 00 00 00 	.long 0x0
 909010c:	00 00 00 00 	.long 0x0
 9090110:	00 00 00 00 	.long 0x0
 9090114:	00 00 00 00 	.long 0x0
 9090118:	00 00 00 00 	.long 0x0
 909011c:	00 00 00 00 	.long 0x0
 9090120:	00 00 00 00 	.long 0x0
 9090124:	00 00 00 00 	.long 0x0
 9090128:	00 00 00 00 	.long 0x0
 909012c:	00 00 00 00 	.long 0x0
 9090130:	00 00 00 00 	.long 0x0
 9090134:	00 00 00 00 	.long 0x0
 9090138:	00 00 00 00 	.long 0x0
 909013c:	00 00 00 00 	.long 0x0
 9090140:	00 00 00 00 	.long 0x0
 9090144:	00 00 00 00 	.long 0x0
 9090148:	00 00 00 00 	.long 0x0
 909014c:	00 00 00 00 	.long 0x0
 9090150:	00 00 00 00 	.long 0x0
 9090154:	00 00 00 00 	.long 0x0
 9090158:	00 00 00 00 	.long 0x0
 909015c:	00 00 00 00 	.long 0x0
 9090160:	00 00 00 00 	.long 0x0
 9090164:	00 00 00 00 	.long 0x0
 9090168:	00 00 00 00 	.long 0x0
 909016c:	00 00 00 00 	.long 0x0
 9090170:	00 00 00 00 	.long 0x0
 9090174:	00 00 00 00 	.long 0x0
 9090178:	00 00 00 00 	.long 0x0
 909017c:	00 00 00 00 	.long 0x0
 9090180:	00 00 00 00 	.long 0x0
 9090184:	00 00 00 00 	.long 0x0
 9090188:	00 00 00 00 	.long 0x0
 909018c:	00 00 00 00 	.long 0x0
 9090190:	00 00 00 00 	.long 0x0
 9090194:	00 00 00 00 	.long 0x0
 9090198:	00 00 00 00 	.long 0x0
 909019c:	00 00 00 00 	.long 0x0
 90901a0:	00 00 00 00 	.long 0x0
 90901a4:	00 00 00 00 	.long 0x0
 90901a8:	00 00 00 00 	.long 0x0
 90901ac:	00 00 00 00 	.long 0x0
 90901b0:	00 00 00 00 	.long 0x0
 90901b4:	00 00 00 00 	.long 0x0
 90901b8:	00 00 00 00 	.long 0x0
 90901bc:	00 00 00 00 	.long 0x0
 90901c0:	00 00 00 00 	.long 0x0
 90901c4:	00 00 00 00 	.long 0x0
 90901c8:	00 00 00 00 	.long 0x0
 90901cc:	00 00 00 00 	.long 0x0
 90901d0:	00 00 00 00 	.long 0x0
 90901d4:	00 00 00 00 	.long 0x0
 90901d8:	00 00 00 00 	.long 0x0
 90901dc:	00 00 00 00 	.long 0x0
 90901e0:	00 00 00 00 	.long 0x0
 90901e4:	00 00 00 00 	.long 0x0
 90901e8:	00 00 00 00 	.long 0x0
 90901ec:	00 00 00 00 	.long 0x0
 90901f0:	00 00 00 00 	.long 0x0
 90901f4:	00 00 00 00 	.long 0x0
 90901f8:	00 00 00 00 	.long 0x0
 90901fc:	00 00 00 00 	.long 0x0
 9090200:	00 00 00 00 	.long 0x0
 9090204:	00 00 00 00 	.long 0x0
 9090208:	00 00 00 00 	.long 0x0
 909020c:	00 00 00 00 	.long 0x0
 9090210:	00 00 00 00 	.long 0x0
 9090214:	00 00 00 00 	.long 0x0
 9090218:	00 00 00 00 	.long 0x0
 909021c:	00 00 00 00 	.long 0x0
 9090220:	00 00 00 00 	.long 0x0
 9090224:	00 00 00 00 	.long 0x0
 9090228:	00 00 00 00 	.long 0x0
 909022c:	00 00 00 00 	.long 0x0
 9090230:	00 00 00 00 	.long 0x0
 9090234:	00 00 00 00 	.long 0x0
 9090238:	00 00 00 00 	.long 0x0
 909023c:	00 00 00 00 	.long 0x0
 9090240:	00 00 00 00 	.long 0x0
 9090244:	00 00 00 00 	.long 0x0
 9090248:	00 00 00 00 	.long 0x0
 909024c:	00 00 00 00 	.long 0x0
 9090250:	00 00 00 00 	.long 0x0
 9090254:	00 00 00 00 	.long 0x0
 9090258:	00 00 00 00 	.long 0x0
 909025c:	00 00 00 00 	.long 0x0
 9090260:	00 00 00 00 	.long 0x0
 9090264:	00 00 00 00 	.long 0x0
 9090268:	00 00 00 00 	.long 0x0
 909026c:	00 00 00 00 	.long 0x0
 9090270:	00 00 00 00 	.long 0x0
 9090274:	00 00 00 00 	.long 0x0
 9090278:	00 00 00 00 	.long 0x0
 909027c:	00 00 00 00 	.long 0x0
 9090280:	00 00 00 00 	.long 0x0
 9090284:	00 00 00 00 	.long 0x0
 9090288:	00 00 00 00 	.long 0x0
 909028c:	00 00 00 00 	.long 0x0
 9090290:	00 00 00 00 	.long 0x0
 9090294:	00 00 00 00 	.long 0x0
 9090298:	00 00 00 00 	.long 0x0
 909029c:	00 00 00 00 	.long 0x0
 90902a0:	00 00 00 00 	.long 0x0
 90902a4:	00 00 00 00 	.long 0x0
 90902a8:	00 00 00 00 	.long 0x0
 90902ac:	00 00 00 00 	.long 0x0
 90902b0:	00 00 00 00 	.long 0x0
 90902b4:	00 00 00 00 	.long 0x0
 90902b8:	00 00 00 00 	.long 0x0
 90902bc:	00 00 00 00 	.long 0x0
 90902c0:	00 00 00 00 	.long 0x0
 90902c4:	00 00 00 00 	.long 0x0
 90902c8:	00 00 00 00 	.long 0x0
 90902cc:	00 00 00 00 	.long 0x0
 90902d0:	00 00 00 00 	.long 0x0
 90902d4:	00 00 00 00 	.long 0x0
 90902d8:	00 00 00 00 	.long 0x0
 90902dc:	00 00 00 00 	.long 0x0
 90902e0:	00 00 00 00 	.long 0x0
 90902e4:	00 00 00 00 	.long 0x0
 90902e8:	00 00 00 00 	.long 0x0
 90902ec:	00 00 00 00 	.long 0x0
 90902f0:	00 00 00 00 	.long 0x0
 90902f4:	00 00 00 00 	.long 0x0
 90902f8:	00 00 00 00 	.long 0x0
 90902fc:	00 00 00 00 	.long 0x0
 9090300:	00 00 00 00 	.long 0x0
 9090304:	00 00 00 00 	.long 0x0
 9090308:	00 00 00 00 	.long 0x0
 909030c:	00 00 00 00 	.long 0x0
 9090310:	00 00 00 00 	.long 0x0
 9090314:	00 00 00 00 	.long 0x0
 9090318:	00 00 00 00 	.long 0x0
 909031c:	00 00 00 00 	.long 0x0

0000000009090320 <matC>:
 9090320:	00 00 00 00 	.long 0x0
 9090324:	00 00 00 00 	.long 0x0
 9090328:	00 00 00 00 	.long 0x0
 909032c:	00 00 00 02 	.long 0x2
 9090330:	00 00 00 00 	.long 0x0
 9090334:	00 00 00 00 	.long 0x0
 9090338:	00 00 00 00 	.long 0x0
 909033c:	00 00 00 00 	.long 0x0
 9090340:	00 00 00 00 	.long 0x0
 9090344:	00 00 00 00 	.long 0x0
 9090348:	00 00 00 00 	.long 0x0
 909034c:	00 00 00 00 	.long 0x0
 9090350:	00 00 00 00 	.long 0x0
 9090354:	00 00 00 00 	.long 0x0
 9090358:	00 00 00 00 	.long 0x0
 909035c:	00 00 00 00 	.long 0x0
 9090360:	00 00 00 00 	.long 0x0
 9090364:	00 00 00 00 	.long 0x0
 9090368:	00 00 00 00 	.long 0x0
 909036c:	00 00 00 00 	.long 0x0
 9090370:	00 00 00 00 	.long 0x0
 9090374:	00 00 00 01 	.long 0x1
 9090378:	00 00 00 00 	.long 0x0
 909037c:	00 00 00 00 	.long 0x0
 9090380:	00 00 00 00 	.long 0x0
 9090384:	00 00 00 00 	.long 0x0
 9090388:	00 00 00 00 	.long 0x0
 909038c:	00 00 00 00 	.long 0x0
 9090390:	00 00 00 00 	.long 0x0
 9090394:	00 00 00 00 	.long 0x0
 9090398:	00 00 00 00 	.long 0x0
 909039c:	00 00 00 00 	.long 0x0
 90903a0:	00 00 00 00 	.long 0x0
 90903a4:	00 00 00 00 	.long 0x0
 90903a8:	00 00 00 00 	.long 0x0
 90903ac:	00 00 00 00 	.long 0x0
 90903b0:	00 00 00 00 	.long 0x0
 90903b4:	00 00 00 00 	.long 0x0
 90903b8:	00 00 00 00 	.long 0x0
 90903bc:	00 00 00 00 	.long 0x0
 90903c0:	00 00 00 00 	.long 0x0
 90903c4:	00 00 00 00 	.long 0x0
 90903c8:	00 00 00 00 	.long 0x0
 90903cc:	00 00 00 00 	.long 0x0
 90903d0:	00 00 00 00 	.long 0x0
 90903d4:	00 00 00 00 	.long 0x0
 90903d8:	00 00 00 00 	.long 0x0
 90903dc:	00 00 00 00 	.long 0x0
 90903e0:	00 00 00 00 	.long 0x0
 90903e4:	00 00 00 00 	.long 0x0
 90903e8:	00 00 00 00 	.long 0x0
 90903ec:	00 00 00 00 	.long 0x0
 90903f0:	00 00 00 00 	.long 0x0
 90903f4:	00 00 00 00 	.long 0x0
 90903f8:	00 00 00 00 	.long 0x0
 90903fc:	00 00 00 00 	.long 0x0
 9090400:	00 00 00 00 	.long 0x0
 9090404:	00 00 00 00 	.long 0x0
 9090408:	00 00 00 00 	.long 0x0
 909040c:	00 00 00 00 	.long 0x0
 9090410:	00 00 00 00 	.long 0x0
 9090414:	00 00 00 00 	.long 0x0
 9090418:	00 00 00 00 	.long 0x0
 909041c:	00 00 00 00 	.long 0x0
 9090420:	00 00 00 00 	.long 0x0
 9090424:	00 00 00 00 	.long 0x0
 9090428:	00 00 00 00 	.long 0x0
 909042c:	00 00 00 00 	.long 0x0
 9090430:	00 00 00 00 	.long 0x0
 9090434:	00 00 00 00 	.long 0x0
 9090438:	00 00 00 00 	.long 0x0
 909043c:	00 00 00 00 	.long 0x0
 9090440:	00 00 00 00 	.long 0x0
 9090444:	00 00 00 00 	.long 0x0
 9090448:	00 00 00 00 	.long 0x0
 909044c:	00 00 00 00 	.long 0x0
 9090450:	00 00 00 00 	.long 0x0
 9090454:	00 00 00 00 	.long 0x0
 9090458:	00 00 00 00 	.long 0x0
 909045c:	00 00 00 00 	.long 0x0
 9090460:	00 00 00 00 	.long 0x0
 9090464:	00 00 00 00 	.long 0x0
 9090468:	00 00 00 00 	.long 0x0
 909046c:	00 00 00 00 	.long 0x0
 9090470:	00 00 00 00 	.long 0x0
 9090474:	00 00 00 00 	.long 0x0
 9090478:	00 00 00 00 	.long 0x0
 909047c:	00 00 00 00 	.long 0x0
 9090480:	00 00 00 00 	.long 0x0
 9090484:	00 00 00 00 	.long 0x0
 9090488:	00 00 00 00 	.long 0x0
 909048c:	00 00 00 00 	.long 0x0
 9090490:	00 00 00 00 	.long 0x0
 9090494:	00 00 00 00 	.long 0x0
 9090498:	00 00 00 00 	.long 0x0
 909049c:	00 00 00 00 	.long 0x0
 90904a0:	00 00 00 00 	.long 0x0
 90904a4:	00 00 00 00 	.long 0x0
 90904a8:	00 00 00 00 	.long 0x0
 90904ac:	00 00 00 00 	.long 0x0
 90904b0:	00 00 00 00 	.long 0x0
 90904b4:	00 00 00 00 	.long 0x0
 90904b8:	00 00 00 00 	.long 0x0
 90904bc:	00 00 00 00 	.long 0x0
 90904c0:	00 00 00 00 	.long 0x0
 90904c4:	00 00 00 00 	.long 0x0
 90904c8:	00 00 00 00 	.long 0x0
 90904cc:	00 00 00 00 	.long 0x0
 90904d0:	00 00 00 00 	.long 0x0
 90904d4:	00 00 00 00 	.long 0x0
 90904d8:	00 00 00 00 	.long 0x0
 90904dc:	00 00 00 00 	.long 0x0
 90904e0:	00 00 00 00 	.long 0x0
 90904e4:	00 00 00 00 	.long 0x0
 90904e8:	00 00 00 00 	.long 0x0
 90904ec:	00 00 00 00 	.long 0x0
 90904f0:	00 00 00 00 	.long 0x0
 90904f4:	00 00 00 00 	.long 0x0
 90904f8:	00 00 00 00 	.long 0x0
 90904fc:	00 00 00 00 	.long 0x0
 9090500:	00 00 00 00 	.long 0x0
 9090504:	00 00 00 00 	.long 0x0
 9090508:	00 00 00 00 	.long 0x0
 909050c:	00 00 00 00 	.long 0x0
 9090510:	00 00 00 00 	.long 0x0
 9090514:	00 00 00 00 	.long 0x0
 9090518:	00 00 00 00 	.long 0x0
 909051c:	00 00 00 00 	.long 0x0
 9090520:	00 00 00 00 	.long 0x0
 9090524:	00 00 00 00 	.long 0x0
 9090528:	00 00 00 00 	.long 0x0
 909052c:	00 00 00 00 	.long 0x0
 9090530:	00 00 00 00 	.long 0x0
 9090534:	00 00 00 00 	.long 0x0
 9090538:	00 00 00 00 	.long 0x0
 909053c:	00 00 00 00 	.long 0x0
 9090540:	00 00 00 00 	.long 0x0
 9090544:	00 00 00 00 	.long 0x0
 9090548:	00 00 00 00 	.long 0x0
 909054c:	00 00 00 00 	.long 0x0
 9090550:	00 00 00 00 	.long 0x0
 9090554:	00 00 00 00 	.long 0x0
 9090558:	00 00 00 00 	.long 0x0
 909055c:	00 00 00 00 	.long 0x0
 9090560:	00 00 00 00 	.long 0x0
 9090564:	00 00 00 00 	.long 0x0
 9090568:	00 00 00 00 	.long 0x0
 909056c:	00 00 00 00 	.long 0x0
 9090570:	00 00 00 00 	.long 0x0
 9090574:	00 00 00 00 	.long 0x0
 9090578:	00 00 00 00 	.long 0x0
 909057c:	00 00 00 00 	.long 0x0
 9090580:	00 00 00 00 	.long 0x0
 9090584:	00 00 00 00 	.long 0x0
 9090588:	00 00 00 00 	.long 0x0
 909058c:	00 00 00 00 	.long 0x0
 9090590:	00 00 00 00 	.long 0x0
 9090594:	00 00 00 00 	.long 0x0
 9090598:	00 00 00 00 	.long 0x0
 909059c:	00 00 00 00 	.long 0x0
 90905a0:	00 00 00 00 	.long 0x0
 90905a4:	00 00 00 00 	.long 0x0
 90905a8:	00 00 00 00 	.long 0x0
 90905ac:	00 00 00 00 	.long 0x0
 90905b0:	00 00 00 00 	.long 0x0
 90905b4:	00 00 00 00 	.long 0x0
 90905b8:	00 00 00 00 	.long 0x0
 90905bc:	00 00 00 00 	.long 0x0
 90905c0:	00 00 00 00 	.long 0x0
 90905c4:	00 00 00 00 	.long 0x0
 90905c8:	00 00 00 00 	.long 0x0
 90905cc:	00 00 00 00 	.long 0x0
 90905d0:	00 00 00 00 	.long 0x0
 90905d4:	00 00 00 00 	.long 0x0
 90905d8:	00 00 00 00 	.long 0x0
 90905dc:	00 00 00 00 	.long 0x0
 90905e0:	00 00 00 00 	.long 0x0
 90905e4:	00 00 00 00 	.long 0x0
 90905e8:	00 00 00 00 	.long 0x0
 90905ec:	00 00 00 00 	.long 0x0
 90905f0:	00 00 00 00 	.long 0x0
 90905f4:	00 00 00 00 	.long 0x0
 90905f8:	00 00 00 00 	.long 0x0
 90905fc:	00 00 00 00 	.long 0x0
 9090600:	00 00 00 00 	.long 0x0
 9090604:	00 00 00 00 	.long 0x0
 9090608:	00 00 00 00 	.long 0x0
 909060c:	00 00 00 00 	.long 0x0
 9090610:	00 00 00 00 	.long 0x0
 9090614:	00 00 00 00 	.long 0x0
 9090618:	00 00 00 00 	.long 0x0
 909061c:	00 00 00 00 	.long 0x0
 9090620:	00 00 00 00 	.long 0x0
 9090624:	00 00 00 00 	.long 0x0
 9090628:	00 00 00 00 	.long 0x0
 909062c:	00 00 00 00 	.long 0x0
 9090630:	00 00 00 00 	.long 0x0
 9090634:	00 00 00 00 	.long 0x0
 9090638:	00 00 00 00 	.long 0x0
 909063c:	00 00 00 00 	.long 0x0

0000000009090640 <matB>:
 9090640:	00 00 00 00 	.long 0x0
 9090644:	00 00 00 00 	.long 0x0
 9090648:	00 00 00 00 	.long 0x0
 909064c:	00 00 00 00 	.long 0x0
 9090650:	00 00 00 00 	.long 0x0
 9090654:	00 00 00 00 	.long 0x0
 9090658:	00 00 00 00 	.long 0x0
 909065c:	00 00 00 00 	.long 0x0
 9090660:	00 00 00 00 	.long 0x0
 9090664:	00 00 00 00 	.long 0x0
 9090668:	00 00 00 00 	.long 0x0
 909066c:	00 00 00 00 	.long 0x0
 9090670:	00 00 00 00 	.long 0x0
 9090674:	00 00 00 00 	.long 0x0
 9090678:	00 00 00 00 	.long 0x0
 909067c:	00 00 00 00 	.long 0x0
 9090680:	00 00 00 00 	.long 0x0
 9090684:	00 00 00 00 	.long 0x0
 9090688:	00 00 00 00 	.long 0x0
 909068c:	00 00 00 00 	.long 0x0
 9090690:	00 00 00 00 	.long 0x0
 9090694:	00 00 00 00 	.long 0x0
 9090698:	00 00 00 00 	.long 0x0
 909069c:	00 00 00 00 	.long 0x0
 90906a0:	00 00 00 00 	.long 0x0
 90906a4:	00 00 00 00 	.long 0x0
 90906a8:	00 00 00 00 	.long 0x0
 90906ac:	00 00 00 00 	.long 0x0
 90906b0:	00 00 00 00 	.long 0x0
 90906b4:	00 00 00 00 	.long 0x0
 90906b8:	00 00 00 00 	.long 0x0
 90906bc:	00 00 00 00 	.long 0x0
 90906c0:	00 00 00 00 	.long 0x0
 90906c4:	00 00 00 00 	.long 0x0
 90906c8:	00 00 00 00 	.long 0x0
 90906cc:	00 00 00 00 	.long 0x0
 90906d0:	00 00 00 00 	.long 0x0
 90906d4:	00 00 00 00 	.long 0x0
 90906d8:	00 00 00 00 	.long 0x0
 90906dc:	00 00 00 00 	.long 0x0
 90906e0:	00 00 00 00 	.long 0x0
 90906e4:	00 00 00 00 	.long 0x0
 90906e8:	00 00 00 00 	.long 0x0
 90906ec:	00 00 00 00 	.long 0x0
 90906f0:	00 00 00 00 	.long 0x0
 90906f4:	00 00 00 00 	.long 0x0
 90906f8:	00 00 00 00 	.long 0x0
 90906fc:	00 00 00 00 	.long 0x0
 9090700:	00 00 00 00 	.long 0x0
 9090704:	00 00 00 00 	.long 0x0
 9090708:	00 00 00 00 	.long 0x0
 909070c:	00 00 00 00 	.long 0x0
 9090710:	00 00 00 00 	.long 0x0
 9090714:	00 00 00 00 	.long 0x0
 9090718:	00 00 00 00 	.long 0x0
 909071c:	00 00 00 00 	.long 0x0
 9090720:	00 00 00 00 	.long 0x0
 9090724:	00 00 00 00 	.long 0x0
 9090728:	00 00 00 00 	.long 0x0
 909072c:	00 00 00 00 	.long 0x0
 9090730:	00 00 00 00 	.long 0x0
 9090734:	00 00 00 00 	.long 0x0
 9090738:	00 00 00 00 	.long 0x0
 909073c:	00 00 00 00 	.long 0x0
 9090740:	00 00 00 00 	.long 0x0
 9090744:	00 00 00 00 	.long 0x0
 9090748:	00 00 00 00 	.long 0x0
 909074c:	00 00 00 00 	.long 0x0
 9090750:	00 00 00 00 	.long 0x0
 9090754:	00 00 00 00 	.long 0x0
 9090758:	00 00 00 00 	.long 0x0
 909075c:	00 00 00 00 	.long 0x0
 9090760:	00 00 00 00 	.long 0x0
 9090764:	00 00 00 00 	.long 0x0
 9090768:	00 00 00 00 	.long 0x0
 909076c:	00 00 00 00 	.long 0x0
 9090770:	00 00 00 00 	.long 0x0
 9090774:	00 00 00 00 	.long 0x0
 9090778:	00 00 00 00 	.long 0x0
 909077c:	00 00 00 00 	.long 0x0
 9090780:	00 00 00 00 	.long 0x0
 9090784:	00 00 00 00 	.long 0x0
 9090788:	00 00 00 00 	.long 0x0
 909078c:	00 00 00 00 	.long 0x0
 9090790:	00 00 00 00 	.long 0x0
 9090794:	00 00 00 00 	.long 0x0
 9090798:	00 00 00 00 	.long 0x0
 909079c:	00 00 00 00 	.long 0x0
 90907a0:	00 00 00 00 	.long 0x0
 90907a4:	00 00 00 00 	.long 0x0
 90907a8:	00 00 00 00 	.long 0x0
 90907ac:	00 00 00 00 	.long 0x0
 90907b0:	00 00 00 00 	.long 0x0
 90907b4:	00 00 00 00 	.long 0x0
 90907b8:	00 00 00 00 	.long 0x0
 90907bc:	00 00 00 00 	.long 0x0
 90907c0:	00 00 00 00 	.long 0x0
 90907c4:	00 00 00 00 	.long 0x0
 90907c8:	00 00 00 00 	.long 0x0
 90907cc:	00 00 00 00 	.long 0x0
 90907d0:	00 00 00 00 	.long 0x0
 90907d4:	00 00 00 00 	.long 0x0
 90907d8:	00 00 00 00 	.long 0x0
 90907dc:	00 00 00 00 	.long 0x0
 90907e0:	00 00 00 00 	.long 0x0
 90907e4:	00 00 00 00 	.long 0x0
 90907e8:	00 00 00 00 	.long 0x0
 90907ec:	00 00 00 00 	.long 0x0
 90907f0:	00 00 00 00 	.long 0x0
 90907f4:	00 00 00 00 	.long 0x0
 90907f8:	00 00 00 00 	.long 0x0
 90907fc:	00 00 00 00 	.long 0x0
 9090800:	00 00 00 00 	.long 0x0
 9090804:	00 00 00 00 	.long 0x0
 9090808:	00 00 00 00 	.long 0x0
 909080c:	00 00 00 00 	.long 0x0
 9090810:	00 00 00 00 	.long 0x0
 9090814:	00 00 00 00 	.long 0x0
 9090818:	00 00 00 00 	.long 0x0
 909081c:	00 00 00 00 	.long 0x0
 9090820:	00 00 00 00 	.long 0x0
 9090824:	00 00 00 00 	.long 0x0
 9090828:	00 00 00 00 	.long 0x0
 909082c:	00 00 00 00 	.long 0x0
 9090830:	00 00 00 00 	.long 0x0
 9090834:	00 00 00 00 	.long 0x0
 9090838:	00 00 00 00 	.long 0x0
 909083c:	00 00 00 00 	.long 0x0
 9090840:	00 00 00 00 	.long 0x0
 9090844:	00 00 00 00 	.long 0x0
 9090848:	00 00 00 00 	.long 0x0
 909084c:	00 00 00 00 	.long 0x0
 9090850:	00 00 00 00 	.long 0x0
 9090854:	00 00 00 00 	.long 0x0
 9090858:	00 00 00 00 	.long 0x0
 909085c:	00 00 00 00 	.long 0x0
 9090860:	00 00 00 00 	.long 0x0
 9090864:	00 00 00 00 	.long 0x0
 9090868:	00 00 00 00 	.long 0x0
 909086c:	00 00 00 00 	.long 0x0
 9090870:	00 00 00 00 	.long 0x0
 9090874:	00 00 00 00 	.long 0x0
 9090878:	00 00 00 00 	.long 0x0
 909087c:	00 00 00 00 	.long 0x0
 9090880:	00 00 00 00 	.long 0x0
 9090884:	00 00 00 00 	.long 0x0
 9090888:	00 00 00 00 	.long 0x0
 909088c:	00 00 00 00 	.long 0x0
 9090890:	00 00 00 00 	.long 0x0
 9090894:	00 00 00 00 	.long 0x0
 9090898:	00 00 00 00 	.long 0x0
 909089c:	00 00 00 00 	.long 0x0
 90908a0:	00 00 00 00 	.long 0x0
 90908a4:	00 00 00 00 	.long 0x0
 90908a8:	00 00 00 00 	.long 0x0
 90908ac:	00 00 00 00 	.long 0x0
 90908b0:	00 00 00 00 	.long 0x0
 90908b4:	00 00 00 00 	.long 0x0
 90908b8:	00 00 00 00 	.long 0x0
 90908bc:	00 00 00 00 	.long 0x0
 90908c0:	00 00 00 00 	.long 0x0
 90908c4:	00 00 00 00 	.long 0x0
 90908c8:	00 00 00 00 	.long 0x0
 90908cc:	00 00 00 00 	.long 0x0
 90908d0:	00 00 00 00 	.long 0x0
 90908d4:	00 00 00 00 	.long 0x0
 90908d8:	00 00 00 00 	.long 0x0
 90908dc:	00 00 00 00 	.long 0x0
 90908e0:	00 00 00 00 	.long 0x0
 90908e4:	00 00 00 00 	.long 0x0
 90908e8:	00 00 00 00 	.long 0x0
 90908ec:	00 00 00 00 	.long 0x0
 90908f0:	00 00 00 00 	.long 0x0
 90908f4:	00 00 00 00 	.long 0x0
 90908f8:	00 00 00 00 	.long 0x0
 90908fc:	00 00 00 00 	.long 0x0
 9090900:	00 00 00 00 	.long 0x0
 9090904:	00 00 00 00 	.long 0x0
 9090908:	00 00 00 00 	.long 0x0
 909090c:	00 00 00 00 	.long 0x0
 9090910:	00 00 00 00 	.long 0x0
 9090914:	00 00 00 00 	.long 0x0
 9090918:	00 00 00 00 	.long 0x0
 909091c:	00 00 00 00 	.long 0x0
 9090920:	00 00 00 00 	.long 0x0
 9090924:	00 00 00 00 	.long 0x0
 9090928:	00 00 00 00 	.long 0x0
 909092c:	00 00 00 00 	.long 0x0
 9090930:	00 00 00 00 	.long 0x0
 9090934:	00 00 00 00 	.long 0x0
 9090938:	00 00 00 00 	.long 0x0
 909093c:	00 00 00 00 	.long 0x0
 9090940:	00 00 00 00 	.long 0x0
 9090944:	00 00 00 00 	.long 0x0
 9090948:	00 00 00 00 	.long 0x0
 909094c:	00 00 00 00 	.long 0x0
 9090950:	00 00 00 00 	.long 0x0
 9090954:	00 00 00 00 	.long 0x0
 9090958:	00 00 00 00 	.long 0x0
 909095c:	00 00 00 00 	.long 0x0
