
/tmp/c2mpt_mm.c/c2mpt_mm.c.s390:     file format elf64-s390


Disassembly of section microprobe.text:

0000000001000000 <my_subroutine>:
 1000000:	b9 0c 00 23       	msgr	%r2,%r3
 1000004:	b9 08 00 24       	agr	%r2,%r4
 1000008:	07 fe             	br	%r14
 100000a:	07 07             	nopr	%r7
 100000c:	07 07             	nopr	%r7
 100000e:	07 07             	nopr	%r7

0000000001000010 <c2mpt_function>:
 1000010:	eb 6f f0 30 00 24 	stmg	%r6,%r15,48(%r15)
 1000016:	a7 fb ff 20       	aghi	%r15,-224
 100001a:	c0 10 04 04 7f f3 	larl	%r1,9090000 <matC>
 1000020:	c0 c0 04 04 83 10 	larl	%r12,9090640 <matA>
 1000026:	e3 10 f0 c8 00 24 	stg	%r1,200(%r15)
 100002c:	a7 19 00 0a       	lghi	%r1,10
 1000030:	e3 10 f0 d0 00 24 	stg	%r1,208(%r15)
 1000036:	e3 10 c0 20 00 04 	lg	%r1,32(%r12)
 100003c:	e3 10 f0 a0 00 24 	stg	%r1,160(%r15)
 1000042:	e3 10 c0 28 00 04 	lg	%r1,40(%r12)
 1000048:	e3 10 f0 a8 00 24 	stg	%r1,168(%r15)
 100004e:	e3 10 c0 30 00 04 	lg	%r1,48(%r12)
 1000054:	e3 10 f0 b0 00 24 	stg	%r1,176(%r15)
 100005a:	e3 10 c0 38 00 04 	lg	%r1,56(%r12)
 1000060:	e3 10 f0 b8 00 24 	stg	%r1,184(%r15)
 1000066:	e3 10 c0 40 00 04 	lg	%r1,64(%r12)
 100006c:	e3 10 f0 c0 00 24 	stg	%r1,192(%r15)
 1000072:	e3 10 c0 48 00 04 	lg	%r1,72(%r12)
 1000078:	e3 60 c0 00 00 04 	lg	%r6,0(%r12)
 100007e:	e3 70 c0 08 00 04 	lg	%r7,8(%r12)
 1000084:	e3 80 c0 10 00 04 	lg	%r8,16(%r12)
 100008a:	e3 90 c0 18 00 04 	lg	%r9,24(%r12)
 1000090:	e3 c0 f0 d8 00 24 	stg	%r12,216(%r15)
 1000096:	c0 d0 04 04 81 45 	larl	%r13,9090320 <matB>
 100009c:	e3 a0 f0 c8 00 04 	lg	%r10,200(%r15)
 10000a2:	a7 b9 00 0a       	lghi	%r11,10
 10000a6:	b9 04 00 c1       	lgr	%r12,%r1
 10000aa:	e3 30 d0 00 00 04 	lg	%r3,0(%r13)
 10000b0:	a7 49 00 00       	lghi	%r4,0
 10000b4:	b9 04 00 26       	lgr	%r2,%r6
 10000b8:	c0 e5 ff ff ff a4 	brasl	%r14,1000000 <my_subroutine>
 10000be:	e3 30 d0 50 00 04 	lg	%r3,80(%r13)
 10000c4:	b9 04 00 42       	lgr	%r4,%r2
 10000c8:	b9 04 00 27       	lgr	%r2,%r7
 10000cc:	c0 e5 ff ff ff 9a 	brasl	%r14,1000000 <my_subroutine>
 10000d2:	e3 30 d0 a0 00 04 	lg	%r3,160(%r13)
 10000d8:	b9 04 00 42       	lgr	%r4,%r2
 10000dc:	b9 04 00 28       	lgr	%r2,%r8
 10000e0:	c0 e5 ff ff ff 90 	brasl	%r14,1000000 <my_subroutine>
 10000e6:	e3 30 d0 f0 00 04 	lg	%r3,240(%r13)
 10000ec:	b9 04 00 42       	lgr	%r4,%r2
 10000f0:	b9 04 00 29       	lgr	%r2,%r9
 10000f4:	c0 e5 ff ff ff 86 	brasl	%r14,1000000 <my_subroutine>
 10000fa:	e3 30 d1 40 00 04 	lg	%r3,320(%r13)
 1000100:	b9 04 00 42       	lgr	%r4,%r2
 1000104:	e3 20 f0 a0 00 04 	lg	%r2,160(%r15)
 100010a:	c0 e5 ff ff ff 7b 	brasl	%r14,1000000 <my_subroutine>
 1000110:	e3 30 d1 90 00 04 	lg	%r3,400(%r13)
 1000116:	b9 04 00 42       	lgr	%r4,%r2
 100011a:	e3 20 f0 a8 00 04 	lg	%r2,168(%r15)
 1000120:	c0 e5 ff ff ff 70 	brasl	%r14,1000000 <my_subroutine>
 1000126:	e3 30 d1 e0 00 04 	lg	%r3,480(%r13)
 100012c:	b9 04 00 42       	lgr	%r4,%r2
 1000130:	e3 20 f0 b0 00 04 	lg	%r2,176(%r15)
 1000136:	c0 e5 ff ff ff 65 	brasl	%r14,1000000 <my_subroutine>
 100013c:	e3 30 d2 30 00 04 	lg	%r3,560(%r13)
 1000142:	b9 04 00 42       	lgr	%r4,%r2
 1000146:	e3 20 f0 b8 00 04 	lg	%r2,184(%r15)
 100014c:	c0 e5 ff ff ff 5a 	brasl	%r14,1000000 <my_subroutine>
 1000152:	e3 30 d2 80 00 04 	lg	%r3,640(%r13)
 1000158:	b9 04 00 42       	lgr	%r4,%r2
 100015c:	e3 20 f0 c0 00 04 	lg	%r2,192(%r15)
 1000162:	c0 e5 ff ff ff 4f 	brasl	%r14,1000000 <my_subroutine>
 1000168:	e3 30 d2 d0 00 04 	lg	%r3,720(%r13)
 100016e:	b9 04 00 42       	lgr	%r4,%r2
 1000172:	b9 04 00 2c       	lgr	%r2,%r12
 1000176:	c0 e5 ff ff ff 45 	brasl	%r14,1000000 <my_subroutine>
 100017c:	e3 20 a0 00 00 24 	stg	%r2,0(%r10)
 1000182:	a7 db 00 08       	aghi	%r13,8
 1000186:	a7 ab 00 08       	aghi	%r10,8
 100018a:	a7 b7 ff 90       	brctg	%r11,10000aa <c2mpt_function+0x9a>
 100018e:	e3 10 f0 c8 00 04 	lg	%r1,200(%r15)
 1000194:	a7 1b 00 50       	aghi	%r1,80
 1000198:	e3 c0 f0 d8 00 04 	lg	%r12,216(%r15)
 100019e:	a7 cb 00 50       	aghi	%r12,80
 10001a2:	e3 10 f0 c8 00 24 	stg	%r1,200(%r15)
 10001a8:	e3 10 f0 d0 00 04 	lg	%r1,208(%r15)
 10001ae:	a7 1b ff ff       	aghi	%r1,-1
 10001b2:	e3 10 f0 d0 00 24 	stg	%r1,208(%r15)
 10001b8:	a7 74 ff 3f       	jne	1000036 <c2mpt_function+0x26>
 10001bc:	e3 40 f1 50 00 04 	lg	%r4,336(%r15)
 10001c2:	eb 6f f1 10 00 04 	lmg	%r6,%r15,272(%r15)
 10001c8:	07 f4             	br	%r4
 10001ca:	07 07             	nopr	%r7
 10001cc:	07 07             	nopr	%r7
 10001ce:	07 07             	nopr	%r7

Disassembly of section microprobe.data:

0000000009090000 <matC>:
 9090000:	00 00 00 00       	.long	0x00000000
 9090004:	00 00 00 00       	.long	0x00000000
 9090008:	00 00 00 00       	.long	0x00000000
 909000c:	00 00 00 02       	.long	0x00000002
 9090010:	00 00 00 00       	.long	0x00000000
 9090014:	00 00 00 00       	.long	0x00000000
 9090018:	00 00 00 00       	.long	0x00000000
 909001c:	00 00 00 00       	.long	0x00000000
 9090020:	00 00 00 00       	.long	0x00000000
 9090024:	00 00 00 00       	.long	0x00000000
 9090028:	00 00 00 00       	.long	0x00000000
 909002c:	00 00 00 00       	.long	0x00000000
 9090030:	00 00 00 00       	.long	0x00000000
 9090034:	00 00 00 00       	.long	0x00000000
 9090038:	00 00 00 00       	.long	0x00000000
 909003c:	00 00 00 00       	.long	0x00000000
 9090040:	00 00 00 00       	.long	0x00000000
 9090044:	00 00 00 00       	.long	0x00000000
 9090048:	00 00 00 00       	.long	0x00000000
 909004c:	00 00 00 00       	.long	0x00000000
 9090050:	00 00 00 00       	.long	0x00000000
 9090054:	00 00 00 01       	.long	0x00000001
 9090058:	00 00 00 00       	.long	0x00000000
 909005c:	00 00 00 00       	.long	0x00000000
 9090060:	00 00 00 00       	.long	0x00000000
 9090064:	00 00 00 00       	.long	0x00000000
 9090068:	00 00 00 00       	.long	0x00000000
 909006c:	00 00 00 00       	.long	0x00000000
 9090070:	00 00 00 00       	.long	0x00000000
 9090074:	00 00 00 00       	.long	0x00000000
 9090078:	00 00 00 00       	.long	0x00000000
 909007c:	00 00 00 00       	.long	0x00000000
 9090080:	00 00 00 00       	.long	0x00000000
 9090084:	00 00 00 00       	.long	0x00000000
 9090088:	00 00 00 00       	.long	0x00000000
 909008c:	00 00 00 00       	.long	0x00000000
 9090090:	00 00 00 00       	.long	0x00000000
 9090094:	00 00 00 00       	.long	0x00000000
 9090098:	00 00 00 00       	.long	0x00000000
 909009c:	00 00 00 00       	.long	0x00000000
 90900a0:	00 00 00 00       	.long	0x00000000
 90900a4:	00 00 00 00       	.long	0x00000000
 90900a8:	00 00 00 00       	.long	0x00000000
 90900ac:	00 00 00 00       	.long	0x00000000
 90900b0:	00 00 00 00       	.long	0x00000000
 90900b4:	00 00 00 00       	.long	0x00000000
 90900b8:	00 00 00 00       	.long	0x00000000
 90900bc:	00 00 00 00       	.long	0x00000000
 90900c0:	00 00 00 00       	.long	0x00000000
 90900c4:	00 00 00 00       	.long	0x00000000
 90900c8:	00 00 00 00       	.long	0x00000000
 90900cc:	00 00 00 00       	.long	0x00000000
 90900d0:	00 00 00 00       	.long	0x00000000
 90900d4:	00 00 00 00       	.long	0x00000000
 90900d8:	00 00 00 00       	.long	0x00000000
 90900dc:	00 00 00 00       	.long	0x00000000
 90900e0:	00 00 00 00       	.long	0x00000000
 90900e4:	00 00 00 00       	.long	0x00000000
 90900e8:	00 00 00 00       	.long	0x00000000
 90900ec:	00 00 00 00       	.long	0x00000000
 90900f0:	00 00 00 00       	.long	0x00000000
 90900f4:	00 00 00 00       	.long	0x00000000
 90900f8:	00 00 00 00       	.long	0x00000000
 90900fc:	00 00 00 00       	.long	0x00000000
 9090100:	00 00 00 00       	.long	0x00000000
 9090104:	00 00 00 00       	.long	0x00000000
 9090108:	00 00 00 00       	.long	0x00000000
 909010c:	00 00 00 00       	.long	0x00000000
 9090110:	00 00 00 00       	.long	0x00000000
 9090114:	00 00 00 00       	.long	0x00000000
 9090118:	00 00 00 00       	.long	0x00000000
 909011c:	00 00 00 00       	.long	0x00000000
 9090120:	00 00 00 00       	.long	0x00000000
 9090124:	00 00 00 00       	.long	0x00000000
 9090128:	00 00 00 00       	.long	0x00000000
 909012c:	00 00 00 00       	.long	0x00000000
 9090130:	00 00 00 00       	.long	0x00000000
 9090134:	00 00 00 00       	.long	0x00000000
 9090138:	00 00 00 00       	.long	0x00000000
 909013c:	00 00 00 00       	.long	0x00000000
 9090140:	00 00 00 00       	.long	0x00000000
 9090144:	00 00 00 00       	.long	0x00000000
 9090148:	00 00 00 00       	.long	0x00000000
 909014c:	00 00 00 00       	.long	0x00000000
 9090150:	00 00 00 00       	.long	0x00000000
 9090154:	00 00 00 00       	.long	0x00000000
 9090158:	00 00 00 00       	.long	0x00000000
 909015c:	00 00 00 00       	.long	0x00000000
 9090160:	00 00 00 00       	.long	0x00000000
 9090164:	00 00 00 00       	.long	0x00000000
 9090168:	00 00 00 00       	.long	0x00000000
 909016c:	00 00 00 00       	.long	0x00000000
 9090170:	00 00 00 00       	.long	0x00000000
 9090174:	00 00 00 00       	.long	0x00000000
 9090178:	00 00 00 00       	.long	0x00000000
 909017c:	00 00 00 00       	.long	0x00000000
 9090180:	00 00 00 00       	.long	0x00000000
 9090184:	00 00 00 00       	.long	0x00000000
 9090188:	00 00 00 00       	.long	0x00000000
 909018c:	00 00 00 00       	.long	0x00000000
 9090190:	00 00 00 00       	.long	0x00000000
 9090194:	00 00 00 00       	.long	0x00000000
 9090198:	00 00 00 00       	.long	0x00000000
 909019c:	00 00 00 00       	.long	0x00000000
 90901a0:	00 00 00 00       	.long	0x00000000
 90901a4:	00 00 00 00       	.long	0x00000000
 90901a8:	00 00 00 00       	.long	0x00000000
 90901ac:	00 00 00 00       	.long	0x00000000
 90901b0:	00 00 00 00       	.long	0x00000000
 90901b4:	00 00 00 00       	.long	0x00000000
 90901b8:	00 00 00 00       	.long	0x00000000
 90901bc:	00 00 00 00       	.long	0x00000000
 90901c0:	00 00 00 00       	.long	0x00000000
 90901c4:	00 00 00 00       	.long	0x00000000
 90901c8:	00 00 00 00       	.long	0x00000000
 90901cc:	00 00 00 00       	.long	0x00000000
 90901d0:	00 00 00 00       	.long	0x00000000
 90901d4:	00 00 00 00       	.long	0x00000000
 90901d8:	00 00 00 00       	.long	0x00000000
 90901dc:	00 00 00 00       	.long	0x00000000
 90901e0:	00 00 00 00       	.long	0x00000000
 90901e4:	00 00 00 00       	.long	0x00000000
 90901e8:	00 00 00 00       	.long	0x00000000
 90901ec:	00 00 00 00       	.long	0x00000000
 90901f0:	00 00 00 00       	.long	0x00000000
 90901f4:	00 00 00 00       	.long	0x00000000
 90901f8:	00 00 00 00       	.long	0x00000000
 90901fc:	00 00 00 00       	.long	0x00000000
 9090200:	00 00 00 00       	.long	0x00000000
 9090204:	00 00 00 00       	.long	0x00000000
 9090208:	00 00 00 00       	.long	0x00000000
 909020c:	00 00 00 00       	.long	0x00000000
 9090210:	00 00 00 00       	.long	0x00000000
 9090214:	00 00 00 00       	.long	0x00000000
 9090218:	00 00 00 00       	.long	0x00000000
 909021c:	00 00 00 00       	.long	0x00000000
 9090220:	00 00 00 00       	.long	0x00000000
 9090224:	00 00 00 00       	.long	0x00000000
 9090228:	00 00 00 00       	.long	0x00000000
 909022c:	00 00 00 00       	.long	0x00000000
 9090230:	00 00 00 00       	.long	0x00000000
 9090234:	00 00 00 00       	.long	0x00000000
 9090238:	00 00 00 00       	.long	0x00000000
 909023c:	00 00 00 00       	.long	0x00000000
 9090240:	00 00 00 00       	.long	0x00000000
 9090244:	00 00 00 00       	.long	0x00000000
 9090248:	00 00 00 00       	.long	0x00000000
 909024c:	00 00 00 00       	.long	0x00000000
 9090250:	00 00 00 00       	.long	0x00000000
 9090254:	00 00 00 00       	.long	0x00000000
 9090258:	00 00 00 00       	.long	0x00000000
 909025c:	00 00 00 00       	.long	0x00000000
 9090260:	00 00 00 00       	.long	0x00000000
 9090264:	00 00 00 00       	.long	0x00000000
 9090268:	00 00 00 00       	.long	0x00000000
 909026c:	00 00 00 00       	.long	0x00000000
 9090270:	00 00 00 00       	.long	0x00000000
 9090274:	00 00 00 00       	.long	0x00000000
 9090278:	00 00 00 00       	.long	0x00000000
 909027c:	00 00 00 00       	.long	0x00000000
 9090280:	00 00 00 00       	.long	0x00000000
 9090284:	00 00 00 00       	.long	0x00000000
 9090288:	00 00 00 00       	.long	0x00000000
 909028c:	00 00 00 00       	.long	0x00000000
 9090290:	00 00 00 00       	.long	0x00000000
 9090294:	00 00 00 00       	.long	0x00000000
 9090298:	00 00 00 00       	.long	0x00000000
 909029c:	00 00 00 00       	.long	0x00000000
 90902a0:	00 00 00 00       	.long	0x00000000
 90902a4:	00 00 00 00       	.long	0x00000000
 90902a8:	00 00 00 00       	.long	0x00000000
 90902ac:	00 00 00 00       	.long	0x00000000
 90902b0:	00 00 00 00       	.long	0x00000000
 90902b4:	00 00 00 00       	.long	0x00000000
 90902b8:	00 00 00 00       	.long	0x00000000
 90902bc:	00 00 00 00       	.long	0x00000000
 90902c0:	00 00 00 00       	.long	0x00000000
 90902c4:	00 00 00 00       	.long	0x00000000
 90902c8:	00 00 00 00       	.long	0x00000000
 90902cc:	00 00 00 00       	.long	0x00000000
 90902d0:	00 00 00 00       	.long	0x00000000
 90902d4:	00 00 00 00       	.long	0x00000000
 90902d8:	00 00 00 00       	.long	0x00000000
 90902dc:	00 00 00 00       	.long	0x00000000
 90902e0:	00 00 00 00       	.long	0x00000000
 90902e4:	00 00 00 00       	.long	0x00000000
 90902e8:	00 00 00 00       	.long	0x00000000
 90902ec:	00 00 00 00       	.long	0x00000000
 90902f0:	00 00 00 00       	.long	0x00000000
 90902f4:	00 00 00 00       	.long	0x00000000
 90902f8:	00 00 00 00       	.long	0x00000000
 90902fc:	00 00 00 00       	.long	0x00000000
 9090300:	00 00 00 00       	.long	0x00000000
 9090304:	00 00 00 00       	.long	0x00000000
 9090308:	00 00 00 00       	.long	0x00000000
 909030c:	00 00 00 00       	.long	0x00000000
 9090310:	00 00 00 00       	.long	0x00000000
 9090314:	00 00 00 00       	.long	0x00000000
 9090318:	00 00 00 00       	.long	0x00000000
 909031c:	00 00 00 00       	.long	0x00000000

0000000009090320 <matB>:
 9090320:	00 00 00 00       	.long	0x00000000
 9090324:	00 00 00 00       	.long	0x00000000
 9090328:	00 00 00 00       	.long	0x00000000
 909032c:	00 00 00 00       	.long	0x00000000
 9090330:	00 00 00 00       	.long	0x00000000
 9090334:	00 00 00 00       	.long	0x00000000
 9090338:	00 00 00 00       	.long	0x00000000
 909033c:	00 00 00 00       	.long	0x00000000
 9090340:	00 00 00 00       	.long	0x00000000
 9090344:	00 00 00 00       	.long	0x00000000
 9090348:	00 00 00 00       	.long	0x00000000
 909034c:	00 00 00 00       	.long	0x00000000
 9090350:	00 00 00 00       	.long	0x00000000
 9090354:	00 00 00 00       	.long	0x00000000
 9090358:	00 00 00 00       	.long	0x00000000
 909035c:	00 00 00 00       	.long	0x00000000
 9090360:	00 00 00 00       	.long	0x00000000
 9090364:	00 00 00 00       	.long	0x00000000
 9090368:	00 00 00 00       	.long	0x00000000
 909036c:	00 00 00 00       	.long	0x00000000
 9090370:	00 00 00 00       	.long	0x00000000
 9090374:	00 00 00 00       	.long	0x00000000
 9090378:	00 00 00 00       	.long	0x00000000
 909037c:	00 00 00 00       	.long	0x00000000
 9090380:	00 00 00 00       	.long	0x00000000
 9090384:	00 00 00 00       	.long	0x00000000
 9090388:	00 00 00 00       	.long	0x00000000
 909038c:	00 00 00 00       	.long	0x00000000
 9090390:	00 00 00 00       	.long	0x00000000
 9090394:	00 00 00 00       	.long	0x00000000
 9090398:	00 00 00 00       	.long	0x00000000
 909039c:	00 00 00 00       	.long	0x00000000
 90903a0:	00 00 00 00       	.long	0x00000000
 90903a4:	00 00 00 00       	.long	0x00000000
 90903a8:	00 00 00 00       	.long	0x00000000
 90903ac:	00 00 00 00       	.long	0x00000000
 90903b0:	00 00 00 00       	.long	0x00000000
 90903b4:	00 00 00 00       	.long	0x00000000
 90903b8:	00 00 00 00       	.long	0x00000000
 90903bc:	00 00 00 00       	.long	0x00000000
 90903c0:	00 00 00 00       	.long	0x00000000
 90903c4:	00 00 00 00       	.long	0x00000000
 90903c8:	00 00 00 00       	.long	0x00000000
 90903cc:	00 00 00 00       	.long	0x00000000
 90903d0:	00 00 00 00       	.long	0x00000000
 90903d4:	00 00 00 00       	.long	0x00000000
 90903d8:	00 00 00 00       	.long	0x00000000
 90903dc:	00 00 00 00       	.long	0x00000000
 90903e0:	00 00 00 00       	.long	0x00000000
 90903e4:	00 00 00 00       	.long	0x00000000
 90903e8:	00 00 00 00       	.long	0x00000000
 90903ec:	00 00 00 00       	.long	0x00000000
 90903f0:	00 00 00 00       	.long	0x00000000
 90903f4:	00 00 00 00       	.long	0x00000000
 90903f8:	00 00 00 00       	.long	0x00000000
 90903fc:	00 00 00 00       	.long	0x00000000
 9090400:	00 00 00 00       	.long	0x00000000
 9090404:	00 00 00 00       	.long	0x00000000
 9090408:	00 00 00 00       	.long	0x00000000
 909040c:	00 00 00 00       	.long	0x00000000
 9090410:	00 00 00 00       	.long	0x00000000
 9090414:	00 00 00 00       	.long	0x00000000
 9090418:	00 00 00 00       	.long	0x00000000
 909041c:	00 00 00 00       	.long	0x00000000
 9090420:	00 00 00 00       	.long	0x00000000
 9090424:	00 00 00 00       	.long	0x00000000
 9090428:	00 00 00 00       	.long	0x00000000
 909042c:	00 00 00 00       	.long	0x00000000
 9090430:	00 00 00 00       	.long	0x00000000
 9090434:	00 00 00 00       	.long	0x00000000
 9090438:	00 00 00 00       	.long	0x00000000
 909043c:	00 00 00 00       	.long	0x00000000
 9090440:	00 00 00 00       	.long	0x00000000
 9090444:	00 00 00 00       	.long	0x00000000
 9090448:	00 00 00 00       	.long	0x00000000
 909044c:	00 00 00 00       	.long	0x00000000
 9090450:	00 00 00 00       	.long	0x00000000
 9090454:	00 00 00 00       	.long	0x00000000
 9090458:	00 00 00 00       	.long	0x00000000
 909045c:	00 00 00 00       	.long	0x00000000
 9090460:	00 00 00 00       	.long	0x00000000
 9090464:	00 00 00 00       	.long	0x00000000
 9090468:	00 00 00 00       	.long	0x00000000
 909046c:	00 00 00 00       	.long	0x00000000
 9090470:	00 00 00 00       	.long	0x00000000
 9090474:	00 00 00 00       	.long	0x00000000
 9090478:	00 00 00 00       	.long	0x00000000
 909047c:	00 00 00 00       	.long	0x00000000
 9090480:	00 00 00 00       	.long	0x00000000
 9090484:	00 00 00 00       	.long	0x00000000
 9090488:	00 00 00 00       	.long	0x00000000
 909048c:	00 00 00 00       	.long	0x00000000
 9090490:	00 00 00 00       	.long	0x00000000
 9090494:	00 00 00 00       	.long	0x00000000
 9090498:	00 00 00 00       	.long	0x00000000
 909049c:	00 00 00 00       	.long	0x00000000
 90904a0:	00 00 00 00       	.long	0x00000000
 90904a4:	00 00 00 00       	.long	0x00000000
 90904a8:	00 00 00 00       	.long	0x00000000
 90904ac:	00 00 00 00       	.long	0x00000000
 90904b0:	00 00 00 00       	.long	0x00000000
 90904b4:	00 00 00 00       	.long	0x00000000
 90904b8:	00 00 00 00       	.long	0x00000000
 90904bc:	00 00 00 00       	.long	0x00000000
 90904c0:	00 00 00 00       	.long	0x00000000
 90904c4:	00 00 00 00       	.long	0x00000000
 90904c8:	00 00 00 00       	.long	0x00000000
 90904cc:	00 00 00 00       	.long	0x00000000
 90904d0:	00 00 00 00       	.long	0x00000000
 90904d4:	00 00 00 00       	.long	0x00000000
 90904d8:	00 00 00 00       	.long	0x00000000
 90904dc:	00 00 00 00       	.long	0x00000000
 90904e0:	00 00 00 00       	.long	0x00000000
 90904e4:	00 00 00 00       	.long	0x00000000
 90904e8:	00 00 00 00       	.long	0x00000000
 90904ec:	00 00 00 00       	.long	0x00000000
 90904f0:	00 00 00 00       	.long	0x00000000
 90904f4:	00 00 00 00       	.long	0x00000000
 90904f8:	00 00 00 00       	.long	0x00000000
 90904fc:	00 00 00 00       	.long	0x00000000
 9090500:	00 00 00 00       	.long	0x00000000
 9090504:	00 00 00 00       	.long	0x00000000
 9090508:	00 00 00 00       	.long	0x00000000
 909050c:	00 00 00 00       	.long	0x00000000
 9090510:	00 00 00 00       	.long	0x00000000
 9090514:	00 00 00 00       	.long	0x00000000
 9090518:	00 00 00 00       	.long	0x00000000
 909051c:	00 00 00 00       	.long	0x00000000
 9090520:	00 00 00 00       	.long	0x00000000
 9090524:	00 00 00 00       	.long	0x00000000
 9090528:	00 00 00 00       	.long	0x00000000
 909052c:	00 00 00 00       	.long	0x00000000
 9090530:	00 00 00 00       	.long	0x00000000
 9090534:	00 00 00 00       	.long	0x00000000
 9090538:	00 00 00 00       	.long	0x00000000
 909053c:	00 00 00 00       	.long	0x00000000
 9090540:	00 00 00 00       	.long	0x00000000
 9090544:	00 00 00 00       	.long	0x00000000
 9090548:	00 00 00 00       	.long	0x00000000
 909054c:	00 00 00 00       	.long	0x00000000
 9090550:	00 00 00 00       	.long	0x00000000
 9090554:	00 00 00 00       	.long	0x00000000
 9090558:	00 00 00 00       	.long	0x00000000
 909055c:	00 00 00 00       	.long	0x00000000
 9090560:	00 00 00 00       	.long	0x00000000
 9090564:	00 00 00 00       	.long	0x00000000
 9090568:	00 00 00 00       	.long	0x00000000
 909056c:	00 00 00 00       	.long	0x00000000
 9090570:	00 00 00 00       	.long	0x00000000
 9090574:	00 00 00 00       	.long	0x00000000
 9090578:	00 00 00 00       	.long	0x00000000
 909057c:	00 00 00 00       	.long	0x00000000
 9090580:	00 00 00 00       	.long	0x00000000
 9090584:	00 00 00 00       	.long	0x00000000
 9090588:	00 00 00 00       	.long	0x00000000
 909058c:	00 00 00 00       	.long	0x00000000
 9090590:	00 00 00 00       	.long	0x00000000
 9090594:	00 00 00 00       	.long	0x00000000
 9090598:	00 00 00 00       	.long	0x00000000
 909059c:	00 00 00 00       	.long	0x00000000
 90905a0:	00 00 00 00       	.long	0x00000000
 90905a4:	00 00 00 00       	.long	0x00000000
 90905a8:	00 00 00 00       	.long	0x00000000
 90905ac:	00 00 00 00       	.long	0x00000000
 90905b0:	00 00 00 00       	.long	0x00000000
 90905b4:	00 00 00 00       	.long	0x00000000
 90905b8:	00 00 00 00       	.long	0x00000000
 90905bc:	00 00 00 00       	.long	0x00000000
 90905c0:	00 00 00 00       	.long	0x00000000
 90905c4:	00 00 00 00       	.long	0x00000000
 90905c8:	00 00 00 00       	.long	0x00000000
 90905cc:	00 00 00 00       	.long	0x00000000
 90905d0:	00 00 00 00       	.long	0x00000000
 90905d4:	00 00 00 00       	.long	0x00000000
 90905d8:	00 00 00 00       	.long	0x00000000
 90905dc:	00 00 00 00       	.long	0x00000000
 90905e0:	00 00 00 00       	.long	0x00000000
 90905e4:	00 00 00 00       	.long	0x00000000
 90905e8:	00 00 00 00       	.long	0x00000000
 90905ec:	00 00 00 00       	.long	0x00000000
 90905f0:	00 00 00 00       	.long	0x00000000
 90905f4:	00 00 00 00       	.long	0x00000000
 90905f8:	00 00 00 00       	.long	0x00000000
 90905fc:	00 00 00 00       	.long	0x00000000
 9090600:	00 00 00 00       	.long	0x00000000
 9090604:	00 00 00 00       	.long	0x00000000
 9090608:	00 00 00 00       	.long	0x00000000
 909060c:	00 00 00 00       	.long	0x00000000
 9090610:	00 00 00 00       	.long	0x00000000
 9090614:	00 00 00 00       	.long	0x00000000
 9090618:	00 00 00 00       	.long	0x00000000
 909061c:	00 00 00 00       	.long	0x00000000
 9090620:	00 00 00 00       	.long	0x00000000
 9090624:	00 00 00 00       	.long	0x00000000
 9090628:	00 00 00 00       	.long	0x00000000
 909062c:	00 00 00 00       	.long	0x00000000
 9090630:	00 00 00 00       	.long	0x00000000
 9090634:	00 00 00 00       	.long	0x00000000
 9090638:	00 00 00 00       	.long	0x00000000
 909063c:	00 00 00 00       	.long	0x00000000

0000000009090640 <matA>:
 9090640:	00 00 00 00       	.long	0x00000000
 9090644:	00 00 00 00       	.long	0x00000000
 9090648:	00 00 00 00       	.long	0x00000000
 909064c:	00 00 00 00       	.long	0x00000000
 9090650:	00 00 00 00       	.long	0x00000000
 9090654:	00 00 00 00       	.long	0x00000000
 9090658:	00 00 00 00       	.long	0x00000000
 909065c:	00 00 00 00       	.long	0x00000000
 9090660:	00 00 00 00       	.long	0x00000000
 9090664:	00 00 00 00       	.long	0x00000000
 9090668:	00 00 00 00       	.long	0x00000000
 909066c:	00 00 00 00       	.long	0x00000000
 9090670:	00 00 00 00       	.long	0x00000000
 9090674:	00 00 00 00       	.long	0x00000000
 9090678:	00 00 00 00       	.long	0x00000000
 909067c:	00 00 00 00       	.long	0x00000000
 9090680:	00 00 00 00       	.long	0x00000000
 9090684:	00 00 00 00       	.long	0x00000000
 9090688:	00 00 00 00       	.long	0x00000000
 909068c:	00 00 00 00       	.long	0x00000000
 9090690:	00 00 00 00       	.long	0x00000000
 9090694:	00 00 00 00       	.long	0x00000000
 9090698:	00 00 00 00       	.long	0x00000000
 909069c:	00 00 00 00       	.long	0x00000000
 90906a0:	00 00 00 00       	.long	0x00000000
 90906a4:	00 00 00 00       	.long	0x00000000
 90906a8:	00 00 00 00       	.long	0x00000000
 90906ac:	00 00 00 00       	.long	0x00000000
 90906b0:	00 00 00 00       	.long	0x00000000
 90906b4:	00 00 00 00       	.long	0x00000000
 90906b8:	00 00 00 00       	.long	0x00000000
 90906bc:	00 00 00 00       	.long	0x00000000
 90906c0:	00 00 00 00       	.long	0x00000000
 90906c4:	00 00 00 00       	.long	0x00000000
 90906c8:	00 00 00 00       	.long	0x00000000
 90906cc:	00 00 00 00       	.long	0x00000000
 90906d0:	00 00 00 00       	.long	0x00000000
 90906d4:	00 00 00 00       	.long	0x00000000
 90906d8:	00 00 00 00       	.long	0x00000000
 90906dc:	00 00 00 00       	.long	0x00000000
 90906e0:	00 00 00 00       	.long	0x00000000
 90906e4:	00 00 00 00       	.long	0x00000000
 90906e8:	00 00 00 00       	.long	0x00000000
 90906ec:	00 00 00 00       	.long	0x00000000
 90906f0:	00 00 00 00       	.long	0x00000000
 90906f4:	00 00 00 00       	.long	0x00000000
 90906f8:	00 00 00 00       	.long	0x00000000
 90906fc:	00 00 00 00       	.long	0x00000000
 9090700:	00 00 00 00       	.long	0x00000000
 9090704:	00 00 00 00       	.long	0x00000000
 9090708:	00 00 00 00       	.long	0x00000000
 909070c:	00 00 00 00       	.long	0x00000000
 9090710:	00 00 00 00       	.long	0x00000000
 9090714:	00 00 00 00       	.long	0x00000000
 9090718:	00 00 00 00       	.long	0x00000000
 909071c:	00 00 00 00       	.long	0x00000000
 9090720:	00 00 00 00       	.long	0x00000000
 9090724:	00 00 00 00       	.long	0x00000000
 9090728:	00 00 00 00       	.long	0x00000000
 909072c:	00 00 00 00       	.long	0x00000000
 9090730:	00 00 00 00       	.long	0x00000000
 9090734:	00 00 00 00       	.long	0x00000000
 9090738:	00 00 00 00       	.long	0x00000000
 909073c:	00 00 00 00       	.long	0x00000000
 9090740:	00 00 00 00       	.long	0x00000000
 9090744:	00 00 00 00       	.long	0x00000000
 9090748:	00 00 00 00       	.long	0x00000000
 909074c:	00 00 00 00       	.long	0x00000000
 9090750:	00 00 00 00       	.long	0x00000000
 9090754:	00 00 00 00       	.long	0x00000000
 9090758:	00 00 00 00       	.long	0x00000000
 909075c:	00 00 00 00       	.long	0x00000000
 9090760:	00 00 00 00       	.long	0x00000000
 9090764:	00 00 00 00       	.long	0x00000000
 9090768:	00 00 00 00       	.long	0x00000000
 909076c:	00 00 00 00       	.long	0x00000000
 9090770:	00 00 00 00       	.long	0x00000000
 9090774:	00 00 00 00       	.long	0x00000000
 9090778:	00 00 00 00       	.long	0x00000000
 909077c:	00 00 00 00       	.long	0x00000000
 9090780:	00 00 00 00       	.long	0x00000000
 9090784:	00 00 00 00       	.long	0x00000000
 9090788:	00 00 00 00       	.long	0x00000000
 909078c:	00 00 00 00       	.long	0x00000000
 9090790:	00 00 00 00       	.long	0x00000000
 9090794:	00 00 00 00       	.long	0x00000000
 9090798:	00 00 00 00       	.long	0x00000000
 909079c:	00 00 00 00       	.long	0x00000000
 90907a0:	00 00 00 00       	.long	0x00000000
 90907a4:	00 00 00 00       	.long	0x00000000
 90907a8:	00 00 00 00       	.long	0x00000000
 90907ac:	00 00 00 00       	.long	0x00000000
 90907b0:	00 00 00 00       	.long	0x00000000
 90907b4:	00 00 00 00       	.long	0x00000000
 90907b8:	00 00 00 00       	.long	0x00000000
 90907bc:	00 00 00 00       	.long	0x00000000
 90907c0:	00 00 00 00       	.long	0x00000000
 90907c4:	00 00 00 00       	.long	0x00000000
 90907c8:	00 00 00 00       	.long	0x00000000
 90907cc:	00 00 00 00       	.long	0x00000000
 90907d0:	00 00 00 00       	.long	0x00000000
 90907d4:	00 00 00 00       	.long	0x00000000
 90907d8:	00 00 00 00       	.long	0x00000000
 90907dc:	00 00 00 00       	.long	0x00000000
 90907e0:	00 00 00 00       	.long	0x00000000
 90907e4:	00 00 00 00       	.long	0x00000000
 90907e8:	00 00 00 00       	.long	0x00000000
 90907ec:	00 00 00 00       	.long	0x00000000
 90907f0:	00 00 00 00       	.long	0x00000000
 90907f4:	00 00 00 00       	.long	0x00000000
 90907f8:	00 00 00 00       	.long	0x00000000
 90907fc:	00 00 00 00       	.long	0x00000000
 9090800:	00 00 00 00       	.long	0x00000000
 9090804:	00 00 00 00       	.long	0x00000000
 9090808:	00 00 00 00       	.long	0x00000000
 909080c:	00 00 00 00       	.long	0x00000000
 9090810:	00 00 00 00       	.long	0x00000000
 9090814:	00 00 00 00       	.long	0x00000000
 9090818:	00 00 00 00       	.long	0x00000000
 909081c:	00 00 00 00       	.long	0x00000000
 9090820:	00 00 00 00       	.long	0x00000000
 9090824:	00 00 00 00       	.long	0x00000000
 9090828:	00 00 00 00       	.long	0x00000000
 909082c:	00 00 00 00       	.long	0x00000000
 9090830:	00 00 00 00       	.long	0x00000000
 9090834:	00 00 00 00       	.long	0x00000000
 9090838:	00 00 00 00       	.long	0x00000000
 909083c:	00 00 00 00       	.long	0x00000000
 9090840:	00 00 00 00       	.long	0x00000000
 9090844:	00 00 00 00       	.long	0x00000000
 9090848:	00 00 00 00       	.long	0x00000000
 909084c:	00 00 00 00       	.long	0x00000000
 9090850:	00 00 00 00       	.long	0x00000000
 9090854:	00 00 00 00       	.long	0x00000000
 9090858:	00 00 00 00       	.long	0x00000000
 909085c:	00 00 00 00       	.long	0x00000000
 9090860:	00 00 00 00       	.long	0x00000000
 9090864:	00 00 00 00       	.long	0x00000000
 9090868:	00 00 00 00       	.long	0x00000000
 909086c:	00 00 00 00       	.long	0x00000000
 9090870:	00 00 00 00       	.long	0x00000000
 9090874:	00 00 00 00       	.long	0x00000000
 9090878:	00 00 00 00       	.long	0x00000000
 909087c:	00 00 00 00       	.long	0x00000000
 9090880:	00 00 00 00       	.long	0x00000000
 9090884:	00 00 00 00       	.long	0x00000000
 9090888:	00 00 00 00       	.long	0x00000000
 909088c:	00 00 00 00       	.long	0x00000000
 9090890:	00 00 00 00       	.long	0x00000000
 9090894:	00 00 00 00       	.long	0x00000000
 9090898:	00 00 00 00       	.long	0x00000000
 909089c:	00 00 00 00       	.long	0x00000000
 90908a0:	00 00 00 00       	.long	0x00000000
 90908a4:	00 00 00 00       	.long	0x00000000
 90908a8:	00 00 00 00       	.long	0x00000000
 90908ac:	00 00 00 00       	.long	0x00000000
 90908b0:	00 00 00 00       	.long	0x00000000
 90908b4:	00 00 00 00       	.long	0x00000000
 90908b8:	00 00 00 00       	.long	0x00000000
 90908bc:	00 00 00 00       	.long	0x00000000
 90908c0:	00 00 00 00       	.long	0x00000000
 90908c4:	00 00 00 00       	.long	0x00000000
 90908c8:	00 00 00 00       	.long	0x00000000
 90908cc:	00 00 00 00       	.long	0x00000000
 90908d0:	00 00 00 00       	.long	0x00000000
 90908d4:	00 00 00 00       	.long	0x00000000
 90908d8:	00 00 00 00       	.long	0x00000000
 90908dc:	00 00 00 00       	.long	0x00000000
 90908e0:	00 00 00 00       	.long	0x00000000
 90908e4:	00 00 00 00       	.long	0x00000000
 90908e8:	00 00 00 00       	.long	0x00000000
 90908ec:	00 00 00 00       	.long	0x00000000
 90908f0:	00 00 00 00       	.long	0x00000000
 90908f4:	00 00 00 00       	.long	0x00000000
 90908f8:	00 00 00 00       	.long	0x00000000
 90908fc:	00 00 00 00       	.long	0x00000000
 9090900:	00 00 00 00       	.long	0x00000000
 9090904:	00 00 00 00       	.long	0x00000000
 9090908:	00 00 00 00       	.long	0x00000000
 909090c:	00 00 00 00       	.long	0x00000000
 9090910:	00 00 00 00       	.long	0x00000000
 9090914:	00 00 00 00       	.long	0x00000000
 9090918:	00 00 00 00       	.long	0x00000000
 909091c:	00 00 00 00       	.long	0x00000000
 9090920:	00 00 00 00       	.long	0x00000000
 9090924:	00 00 00 00       	.long	0x00000000
 9090928:	00 00 00 00       	.long	0x00000000
 909092c:	00 00 00 00       	.long	0x00000000
 9090930:	00 00 00 00       	.long	0x00000000
 9090934:	00 00 00 00       	.long	0x00000000
 9090938:	00 00 00 00       	.long	0x00000000
 909093c:	00 00 00 00       	.long	0x00000000
 9090940:	00 00 00 00       	.long	0x00000000
 9090944:	00 00 00 00       	.long	0x00000000
 9090948:	00 00 00 00       	.long	0x00000000
 909094c:	00 00 00 00       	.long	0x00000000
 9090950:	00 00 00 00       	.long	0x00000000
 9090954:	00 00 00 00       	.long	0x00000000
 9090958:	00 00 00 00       	.long	0x00000000
 909095c:	00 00 00 00       	.long	0x00000000
